; Function Attrs: mustprogress uwtable
define void @_ZN7rocksdb17BaseDeltaIterator10SeekToLastEv(ptr noundef nonnull align 8 dereferenceable(200) initializes((40, 41), (48, 54), (160, 176)) %0) unnamed_addr #4 align 2 {
  %2 = getelementptr inbounds nuw i8, ptr %0, i64 40
  store i8 0, ptr %2, align 8, !tbaa !20
  %3 = getelementptr inbounds nuw i8, ptr %0, i64 72
  %4 = load ptr, ptr %3, align 8, !tbaa !99
  %5 = load ptr, ptr %4, align 8, !tbaa !18
  %6 = getelementptr inbounds nuw i8, ptr %5, i64 32
  %7 = load ptr, ptr %6, align 8
  tail call void %7(ptr noundef nonnull align 8 dereferenceable(40) %4)
  %8 = getelementptr inbounds nuw i8, ptr %0, i64 80
  %9 = load ptr, ptr %8, align 8, !tbaa !100
  tail call void @_ZN7rocksdb16WBWIIteratorImpl10SeekToLastEv(ptr noundef nonnull align 8 dereferenceable(72) %9)
  tail call void @_ZN7rocksdb17BaseDeltaIterator13UpdateCurrentEv(ptr noundef nonnull align 8 dereferenceable(200) %0)
  ret void
}